; Function Attrs: mustprogress nounwind uwtable
define dso_local noundef zeroext i1 @_ZNK5clang4ento3mpi21MPIFunctionClassifier18isPointToPointTypeEPKNS_14IdentifierInfoE(ptr noundef nonnull align 8 dereferenceable(1016) %0, ptr noundef readnone %1) local_unnamed_addr #0 align 2 {
  %3 = getelementptr inbounds nuw i8, ptr %0, i64 112
  %4 = load ptr, ptr %3, align 8
  %5 = tail call noundef i64 @_ZNK4llvm15SmallVectorBaseIjE4sizeEv(ptr noundef nonnull align 8 dereferenceable(96) %3) #5
  %.idx4.i = shl nsw i64 %5, 3
  %6 = getelementptr inbounds i8, ptr %4, i64 %.idx4.i
  %7 = ashr i64 %5, 2
  %8 = icmp sgt i64 %7, 0
  br i1 %8, label %.lr.ph.i.i.i.i, label %._crit_edge.i.i.i.i

.lr.ph.i.i.i.i:                                   ; preds = %2
  %9 = and i64 %.idx4.i, -32
  %scevgep.i.i.i.i = getelementptr i8, ptr %4, i64 %9
  br label %10

10:                                               ; preds = %25, %.lr.ph.i.i.i.i
  %.047.i.i.i.i = phi i64 [ %7, %.lr.ph.i.i.i.i ], [ %27, %25 ]
  %.02946.i.i.i.i = phi ptr [ %4, %.lr.ph.i.i.i.i ], [ %26, %25 ]
  %11 = load ptr, ptr %.02946.i.i.i.i, align 8
  %12 = icmp eq ptr %11, %1
  br i1 %12, label %_ZN4llvm12is_containedIRKNS_11SmallVectorIPN5clang14IdentifierInfoELj10EEEPKS3_EEbOT_RKT0_.exit, label %13

13:                                               ; preds = %10
  %14 = getelementptr inbounds nuw i8, ptr %.02946.i.i.i.i, i64 8
  %15 = load ptr, ptr %14, align 8
  %16 = icmp eq ptr %15, %1
  br i1 %16, label %_ZN4llvm12is_containedIRKNS_11SmallVectorIPN5clang14IdentifierInfoELj10EEEPKS3_EEbOT_RKT0_.exit.loopexit.split.loop.exit, label %17

17:                                               ; preds = %13
  %18 = getelementptr inbounds nuw i8, ptr %.02946.i.i.i.i, i64 16
  %19 = load ptr, ptr %18, align 8
  %20 = icmp eq ptr %19, %1
  br i1 %20, label %_ZN4llvm12is_containedIRKNS_11SmallVectorIPN5clang14IdentifierInfoELj10EEEPKS3_EEbOT_RKT0_.exit.loopexit.split.loop.exit14, label %21

21:                                               ; preds = %17
  %22 = getelementptr inbounds nuw i8, ptr %.02946.i.i.i.i, i64 24
  %23 = load ptr, ptr %22, align 8
  %24 = icmp eq ptr %23, %1
  br i1 %24, label %_ZN4llvm12is_containedIRKNS_11SmallVectorIPN5clang14IdentifierInfoELj10EEEPKS3_EEbOT_RKT0_.exit.loopexit.split.loop.exit16, label %25

25:                                               ; preds = %21
  %26 = getelementptr inbounds nuw i8, ptr %.02946.i.i.i.i, i64 32
  %27 = add nsw i64 %.047.i.i.i.i, -1
  %28 = icmp sgt i64 %.047.i.i.i.i, 1
  br i1 %28, label %10, label %._crit_edge.loopexit.i.i.i.i, !llvm.loop !4

._crit_edge.loopexit.i.i.i.i:                     ; preds = %25
  %29 = and i64 %5, 3
  br label %._crit_edge.i.i.i.i

._crit_edge.i.i.i.i:                              ; preds = %._crit_edge.loopexit.i.i.i.i, %2
  %.pre-phi56.i.i.i.i = phi i64 [ %29, %._crit_edge.loopexit.i.i.i.i ], [ %5, %2 ]
  %.029.lcssa.i.i.i.i = phi ptr [ %scevgep.i.i.i.i, %._crit_edge.loopexit.i.i.i.i ], [ %4, %2 ]
  switch i64 %.pre-phi56.i.i.i.i, label %41 [
    i64 3, label %30
    i64 2, label %._crit_edge._crit_edge.i.i.i.i
    i64 1, label %._crit_edge._crit_edge52.i.i.i.i
  ]

30:                                               ; preds = %._crit_edge.i.i.i.i
  %31 = load ptr, ptr %.029.lcssa.i.i.i.i, align 8
  %32 = icmp eq ptr %31, %1
  br i1 %32, label %_ZN4llvm12is_containedIRKNS_11SmallVectorIPN5clang14IdentifierInfoELj10EEEPKS3_EEbOT_RKT0_.exit, label %33

33:                                               ; preds = %30
  %34 = getelementptr inbounds nuw i8, ptr %.029.lcssa.i.i.i.i, i64 8
  br label %._crit_edge._crit_edge.i.i.i.i

._crit_edge._crit_edge.i.i.i.i:                   ; preds = %._crit_edge.i.i.i.i, %33
  %.1.i.i.i.i = phi ptr [ %34, %33 ], [ %.029.lcssa.i.i.i.i, %._crit_edge.i.i.i.i ]
  %35 = load ptr, ptr %.1.i.i.i.i, align 8
  %36 = icmp eq ptr %35, %1
  br i1 %36, label %_ZN4llvm12is_containedIRKNS_11SmallVectorIPN5clang14IdentifierInfoELj10EEEPKS3_EEbOT_RKT0_.exit, label %37

37:                                               ; preds = %._crit_edge._crit_edge.i.i.i.i
  %38 = getelementptr inbounds nuw i8, ptr %.1.i.i.i.i, i64 8
  br label %._crit_edge._crit_edge52.i.i.i.i

._crit_edge._crit_edge52.i.i.i.i:                 ; preds = %._crit_edge.i.i.i.i, %37
  %.2.i.i.i.i = phi ptr [ %38, %37 ], [ %.029.lcssa.i.i.i.i, %._crit_edge.i.i.i.i ]
  %39 = load ptr, ptr %.2.i.i.i.i, align 8
  %40 = icmp eq ptr %39, %1
  br i1 %40, label %_ZN4llvm12is_containedIRKNS_11SmallVectorIPN5clang14IdentifierInfoELj10EEEPKS3_EEbOT_RKT0_.exit, label %41

41:                                               ; preds = %._crit_edge._crit_edge52.i.i.i.i, %._crit_edge.i.i.i.i
  br label %_ZN4llvm12is_containedIRKNS_11SmallVectorIPN5clang14IdentifierInfoELj10EEEPKS3_EEbOT_RKT0_.exit

_ZN4llvm12is_containedIRKNS_11SmallVectorIPN5clang14IdentifierInfoELj10EEEPKS3_EEbOT_RKT0_.exit.loopexit.split.loop.exit: ; preds = %13
  %42 = getelementptr inbounds nuw i8, ptr %.02946.i.i.i.i, i64 8
  br label %_ZN4llvm12is_containedIRKNS_11SmallVectorIPN5clang14IdentifierInfoELj10EEEPKS3_EEbOT_RKT0_.exit

_ZN4llvm12is_containedIRKNS_11SmallVectorIPN5clang14IdentifierInfoELj10EEEPKS3_EEbOT_RKT0_.exit.loopexit.split.loop.exit14: ; preds = %17
  %43 = getelementptr inbounds nuw i8, ptr %.02946.i.i.i.i, i64 16
  br label %_ZN4llvm12is_containedIRKNS_11SmallVectorIPN5clang14IdentifierInfoELj10EEEPKS3_EEbOT_RKT0_.exit

_ZN4llvm12is_containedIRKNS_11SmallVectorIPN5clang14IdentifierInfoELj10EEEPKS3_EEbOT_RKT0_.exit.loopexit.split.loop.exit16: ; preds = %21
  %44 = getelementptr inbounds nuw i8, ptr %.02946.i.i.i.i, i64 24
  br label %_ZN4llvm12is_containedIRKNS_11SmallVectorIPN5clang14IdentifierInfoELj10EEEPKS3_EEbOT_RKT0_.exit

_ZN4llvm12is_containedIRKNS_11SmallVectorIPN5clang14IdentifierInfoELj10EEEPKS3_EEbOT_RKT0_.exit: ; preds = %10, %_ZN4llvm12is_containedIRKNS_11SmallVectorIPN5clang14IdentifierInfoELj10EEEPKS3_EEbOT_RKT0_.exit.loopexit.split.loop.exit, %_ZN4llvm12is_containedIRKNS_11SmallVectorIPN5clang14IdentifierInfoELj10EEEPKS3_EEbOT_RKT0_.exit.loopexit.split.loop.exit14, %_ZN4llvm12is_containedIRKNS_11SmallVectorIPN5clang14IdentifierInfoELj10EEEPKS3_EEbOT_RKT0_.exit.loopexit.split.loop.exit16, %30, %._crit_edge._crit_edge.i.i.i.i, %._crit_edge._crit_edge52.i.i.i.i, %41
  %.028.i.i.i.i = phi ptr [ %6, %41 ], [ %.029.lcssa.i.i.i.i, %30 ], [ %.1.i.i.i.i, %._crit_edge._crit_edge.i.i.i.i ], [ %.2.i.i.i.i, %._crit_edge._crit_edge52.i.i.i.i ], [ %42, %_ZN4llvm12is_containedIRKNS_11SmallVectorIPN5clang14IdentifierInfoELj10EEEPKS3_EEbOT_RKT0_.exit.loopexit.split.loop.exit ], [ %43, %_ZN4llvm12is_containedIRKNS_11SmallVectorIPN5clang14IdentifierInfoELj10EEEPKS3_EEbOT_RKT0_.exit.loopexit.split.loop.exit14 ], [ %44, %_ZN4llvm12is_containedIRKNS_11SmallVectorIPN5clang14IdentifierInfoELj10EEEPKS3_EEbOT_RKT0_.exit.loopexit.split.loop.exit16 ], [ %.02946.i.i.i.i, %10 ]
  %45 = load ptr, ptr %3, align 8
  %46 = tail call noundef i64 @_ZNK4llvm15SmallVectorBaseIjE4sizeEv(ptr noundef nonnull align 8 dereferenceable(96) %3) #5
  %47 = getelementptr inbounds ptr, ptr %45, i64 %46
  %48 = icmp ne ptr %.028.i.i.i.i, %47
  ret i1 %48
}